; Function Attrs: mustprogress nofree norecurse nosync nounwind willreturn memory(none) uwtable
define noundef nonnull align 4 dereferenceable(8) ptr @_ZNK6icu_756number4impl17ParsedPatternInfo12getEndpointsEi(ptr noundef nonnull readnone align 8 dereferenceable(433) %this, i32 noundef %flags) local_unnamed_addr #6 align 2 {
entry:
  %and = and i32 %flags, 256
  %cmp.not = icmp eq i32 %and, 0
  %and2 = and i32 %flags, 512
  %cmp3.not = icmp eq i32 %and2, 0
  %0 = and i32 %flags, 1536
  %brmerge.not = icmp eq i32 %0, 1536
  br i1 %brmerge.not, label %return, label %if.else

if.else:                                          ; preds = %entry
  %and5 = and i32 %flags, 1024
  %cmp6.not = icmp eq i32 %and5, 0
  br i1 %cmp6.not, label %if.else12, label %return

if.else12:                                        ; preds = %if.else
  %1 = and i32 %flags, 768
  %brmerge7.not = icmp eq i32 %1, 768
  br i1 %brmerge7.not, label %return, label %if.else18

if.else18:                                        ; preds = %if.else12
  %. = select i1 %cmp3.not, i64 224, i64 392
  %spec.select = select i1 %cmp.not, i64 %., i64 216
  br label %return

return:                                           ; preds = %if.else18, %if.else12, %if.else, %entry
  %.sink = phi i64 [ 400, %entry ], [ 232, %if.else ], [ 384, %if.else12 ], [ %spec.select, %if.else18 ]
  %suffixEndpoints29 = getelementptr inbounds i8, ptr %this, i64 %.sink
  ret ptr %suffixEndpoints29
}